target datalayout = "e-m:e-p270:32:32-p271:32:32-p272:64:64-i64:64-i128:128-f80:128-n8:16:32:64-S128"
target triple = "x86_64-pc-linux-gnu"

%"class.OpenSubdiv::v3_6_0::Bfr::FeatureBits" = type { i16 }
%"struct.OpenSubdiv::v3_6_0::Bfr::FaceVertexSubset" = type { %"class.OpenSubdiv::v3_6_0::Bfr::VertexTag", i16, i16, i16, float }
%"class.OpenSubdiv::v3_6_0::Bfr::VertexTag" = type { %"class.OpenSubdiv::v3_6_0::Bfr::FeatureBits" }
%"class.OpenSubdiv::v3_6_0::Bfr::FaceVertex" = type { %"class.OpenSubdiv::v3_6_0::Bfr::VertexDescriptor", %"class.OpenSubdiv::v3_6_0::Bfr::VertexTag", i16, i16, i8, i8, i32, %"class.OpenSubdiv::v3_6_0::Vtr::internal::StackBuffer.3" }
%"class.OpenSubdiv::v3_6_0::Bfr::VertexDescriptor" = type { i8, i16, float, %"class.OpenSubdiv::v3_6_0::Vtr::internal::StackBuffer.1", %"class.OpenSubdiv::v3_6_0::Vtr::internal::StackBuffer.2" }
%"class.OpenSubdiv::v3_6_0::Vtr::internal::StackBuffer.1" = type { ptr, i32, i32, [64 x i8], ptr }
%"class.OpenSubdiv::v3_6_0::Vtr::internal::StackBuffer.2" = type { ptr, i32, i32, [32 x i8], ptr }
%"class.OpenSubdiv::v3_6_0::Vtr::internal::StackBuffer.3" = type { ptr, i32, i32, [32 x i8], ptr }

; Function Attrs: mustprogress nounwind uwtable
define linkonce_odr void @_ZN10OpenSubdiv6v3_6_03Bfr11FeatureBitsD2Ev(ptr noundef nonnull align 2 dereferenceable(2) %0) unnamed_addr #1 comdat align 2 {
  %2 = alloca ptr, align 8
  store ptr %0, ptr %2, align 8
  ret void
}

; Function Attrs: mustprogress nounwind uwtable
define linkonce_odr noundef zeroext i1 @_ZNK10OpenSubdiv6v3_6_03Bfr9VertexTag17HasSemiSharpEdgesEv(ptr noundef nonnull align 2 dereferenceable(2) %0) #1 comdat align 2 {
  %2 = alloca ptr, align 8
  store ptr %0, ptr %2, align 8
  %3 = load ptr, ptr %2, align 8
  %4 = load i16, ptr %3, align 2
  %5 = lshr i16 %4, 5
  %6 = and i16 %5, 1
  %7 = icmp ne i16 %6, 0
  ret i1 %7
}

; Function Attrs: mustprogress nounwind uwtable
define linkonce_odr noundef zeroext i1 @_ZNK10OpenSubdiv6v3_6_03Bfr9VertexTag16HasInfSharpEdgesEv(ptr noundef nonnull align 2 dereferenceable(2) %0) #1 comdat align 2 {
  %2 = alloca ptr, align 8
  store ptr %0, ptr %2, align 8
  %3 = load ptr, ptr %2, align 8
  %4 = load i16, ptr %3, align 2
  %5 = lshr i16 %4, 2
  %6 = and i16 %5, 1
  %7 = icmp ne i16 %6, 0
  ret i1 %7
}

; Function Attrs: mustprogress nounwind uwtable
define linkonce_odr void @_ZN10OpenSubdiv6v3_6_03Bfr9VertexTagD2Ev(ptr noundef nonnull align 2 dereferenceable(2) %0) unnamed_addr #1 comdat align 2 {
  %2 = alloca ptr, align 8
  store ptr %0, ptr %2, align 8
  %3 = load ptr, ptr %2, align 8
  call void @_ZN10OpenSubdiv6v3_6_03Bfr11FeatureBitsD2Ev(ptr noundef nonnull align 2 dereferenceable(2) %3) #6
  ret void
}

; Function Attrs: mustprogress nounwind uwtable
define linkonce_odr void @_ZNK10OpenSubdiv6v3_6_03Bfr16FaceVertexSubset6GetTagEv(ptr dead_on_unwind noalias writable sret(%"class.OpenSubdiv::v3_6_0::Bfr::VertexTag") align 2 %0, ptr noundef nonnull align 4 dereferenceable(12) %1) #1 comdat align 2 {
  %3 = alloca ptr, align 8
  %4 = alloca ptr, align 8
  store ptr %0, ptr %3, align 8
  store ptr %1, ptr %4, align 8
  %5 = load ptr, ptr %4, align 8
  %6 = getelementptr inbounds nuw %"struct.OpenSubdiv::v3_6_0::Bfr::FaceVertexSubset", ptr %5, i32 0, i32 0
  call void @llvm.memcpy.p0.p0.i64(ptr align 2 %0, ptr align 4 %6, i64 2, i1 false)
  ret void
}

; Function Attrs: mustprogress uwtable
define linkonce_odr noundef zeroext i1 @_ZNK10OpenSubdiv6v3_6_03Bfr9VertexTag13HasSharpEdgesEv(ptr noundef nonnull align 2 dereferenceable(2) %0) #0 comdat align 2 {
  %2 = alloca ptr, align 8
  store ptr %0, ptr %2, align 8
  %3 = load ptr, ptr %2, align 8
  %4 = call noundef zeroext i1 @_ZNK10OpenSubdiv6v3_6_03Bfr9VertexTag16HasInfSharpEdgesEv(ptr noundef nonnull align 2 dereferenceable(2) %3)
  br i1 %4, label %7, label %5

5:                                                ; preds = %1
  %6 = call noundef zeroext i1 @_ZNK10OpenSubdiv6v3_6_03Bfr9VertexTag17HasSemiSharpEdgesEv(ptr noundef nonnull align 2 dereferenceable(2) %3)
  br label %7

7:                                                ; preds = %5, %1
  %8 = phi i1 [ true, %1 ], [ %6, %5 ]
  ret i1 %8
}

; Function Attrs: mustprogress nounwind uwtable
define linkonce_odr void @_ZNK10OpenSubdiv6v3_6_03Bfr10FaceVertex6GetTagEv(ptr dead_on_unwind noalias writable sret(%"class.OpenSubdiv::v3_6_0::Bfr::VertexTag") align 2 %0, ptr noundef nonnull align 8 dereferenceable(224) %1) #1 comdat align 2 {
  %3 = alloca ptr, align 8
  %4 = alloca ptr, align 8
  store ptr %0, ptr %3, align 8
  store ptr %1, ptr %4, align 8
  %5 = load ptr, ptr %4, align 8
  %6 = getelementptr inbounds nuw %"class.OpenSubdiv::v3_6_0::Bfr::FaceVertex", ptr %5, i32 0, i32 1
  call void @llvm.memcpy.p0.p0.i64(ptr align 2 %0, ptr align 8 %6, i64 2, i1 false)
  ret void
}

; Function Attrs: mustprogress nounwind uwtable
define linkonce_odr noundef i32 @_ZNK10OpenSubdiv6v3_6_03Bfr16FaceVertexSubset11GetNumFacesEv(ptr noundef nonnull align 4 dereferenceable(12) %0) #1 comdat align 2 {
  %2 = alloca ptr, align 8
  store ptr %0, ptr %2, align 8
  %3 = load ptr, ptr %2, align 8
  %4 = getelementptr inbounds nuw %"struct.OpenSubdiv::v3_6_0::Bfr::FaceVertexSubset", ptr %3, i32 0, i32 3
  %5 = load i16, ptr %4, align 2
  %6 = sext i16 %5 to i32
  ret i32 %6
}

; Function Attrs: mustprogress nounwind uwtable
define linkonce_odr noundef i32 @_ZNK10OpenSubdiv6v3_6_03Bfr10FaceVertex11GetNumFacesEv(ptr noundef nonnull align 8 dereferenceable(224) %0) #1 comdat align 2 {
  %2 = alloca ptr, align 8
  store ptr %0, ptr %2, align 8
  %3 = load ptr, ptr %2, align 8
  %4 = getelementptr inbounds nuw %"class.OpenSubdiv::v3_6_0::Bfr::FaceVertex", ptr %3, i32 0, i32 0
  %5 = getelementptr inbounds nuw %"class.OpenSubdiv::v3_6_0::Bfr::VertexDescriptor", ptr %4, i32 0, i32 1
  %6 = load i16, ptr %5, align 2
  %7 = sext i16 %6 to i32
  ret i32 %7
}

; Function Attrs: mustprogress uwtable
define noundef zeroext i1 @_ZN10OpenSubdiv6v3_6_03Bfr9fvar_plus21hasDependentSharpnessERKNS1_10FaceVertexERKNS1_16FaceVertexSubsetE(ptr noundef nonnull align 8 dereferenceable(224) %0, ptr noundef nonnull align 4 dereferenceable(12) %1) #0 personality ptr @__gxx_personality_v0 {
  %3 = alloca i1, align 1
  %4 = alloca ptr, align 8
  %5 = alloca ptr, align 8
  %6 = alloca %"class.OpenSubdiv::v3_6_0::Bfr::VertexTag", align 2
  %7 = alloca i1, align 1
  %8 = alloca ptr, align 8
  %9 = alloca i32, align 4
  %10 = alloca %"class.OpenSubdiv::v3_6_0::Bfr::VertexTag", align 2
  %11 = alloca i1, align 1
  store ptr %0, ptr %4, align 8
  store ptr %1, ptr %5, align 8
  %12 = load ptr, ptr %4, align 8
  %13 = call noundef i32 @_ZNK10OpenSubdiv6v3_6_03Bfr10FaceVertex11GetNumFacesEv(ptr noundef nonnull align 8 dereferenceable(224) %12)
  %14 = load ptr, ptr %5, align 8
  %15 = call noundef i32 @_ZNK10OpenSubdiv6v3_6_03Bfr16FaceVertexSubset11GetNumFacesEv(ptr noundef nonnull align 4 dereferenceable(12) %14)
  %16 = sub nsw i32 %13, %15
  %17 = icmp sgt i32 %16, 1
  store i1 false, ptr %7, align 1
  store i1 false, ptr %11, align 1
  br i1 %17, label %18, label %27

18:                                               ; preds = %2
  %19 = load ptr, ptr %4, align 8
  call void @_ZNK10OpenSubdiv6v3_6_03Bfr10FaceVertex6GetTagEv(ptr dead_on_unwind writable sret(%"class.OpenSubdiv::v3_6_0::Bfr::VertexTag") align 2 %6, ptr noundef nonnull align 8 dereferenceable(224) %19)
  store i1 true, ptr %7, align 1
  %20 = invoke noundef zeroext i1 @_ZNK10OpenSubdiv6v3_6_03Bfr9VertexTag13HasSharpEdgesEv(ptr noundef nonnull align 2 dereferenceable(2) %6)
          to label %21 unwind label %36

21:                                               ; preds = %18
  br i1 %20, label %22, label %27

22:                                               ; preds = %21
  %23 = load ptr, ptr %5, align 8
  call void @_ZNK10OpenSubdiv6v3_6_03Bfr16FaceVertexSubset6GetTagEv(ptr dead_on_unwind writable sret(%"class.OpenSubdiv::v3_6_0::Bfr::VertexTag") align 2 %10, ptr noundef nonnull align 4 dereferenceable(12) %23)
  store i1 true, ptr %11, align 1
  %24 = invoke noundef zeroext i1 @_ZNK10OpenSubdiv6v3_6_03Bfr9VertexTag13HasSharpEdgesEv(ptr noundef nonnull align 2 dereferenceable(2) %10)
          to label %25 unwind label %40

25:                                               ; preds = %22
  %26 = xor i1 %24, true
  br label %27

27:                                               ; preds = %25, %21, %2
  %28 = phi i1 [ false, %21 ], [ false, %2 ], [ %26, %25 ]
  store i1 %28, ptr %3, align 1
  %29 = load i1, ptr %11, align 1
  br i1 %29, label %30, label %31

30:                                               ; preds = %27
  call void @_ZN10OpenSubdiv6v3_6_03Bfr9VertexTagD2Ev(ptr noundef nonnull align 2 dereferenceable(2) %10) #6
  br label %31

31:                                               ; preds = %30, %27
  %32 = load i1, ptr %7, align 1
  br i1 %32, label %33, label %34

33:                                               ; preds = %31
  call void @_ZN10OpenSubdiv6v3_6_03Bfr9VertexTagD2Ev(ptr noundef nonnull align 2 dereferenceable(2) %6) #6
  br label %34

34:                                               ; preds = %33, %31
  %35 = load i1, ptr %3, align 1
  ret i1 %35

36:                                               ; preds = %18
  %37 = landingpad { ptr, i32 }
          cleanup
  %38 = extractvalue { ptr, i32 } %37, 0
  store ptr %38, ptr %8, align 8
  %39 = extractvalue { ptr, i32 } %37, 1
  store i32 %39, ptr %9, align 4
  br label %47

40:                                               ; preds = %22
  %41 = landingpad { ptr, i32 }
          cleanup
  %42 = extractvalue { ptr, i32 } %41, 0
  store ptr %42, ptr %8, align 8
  %43 = extractvalue { ptr, i32 } %41, 1
  store i32 %43, ptr %9, align 4
  %44 = load i1, ptr %11, align 1
  br i1 %44, label %45, label %46

45:                                               ; preds = %40
  call void @_ZN10OpenSubdiv6v3_6_03Bfr9VertexTagD2Ev(ptr noundef nonnull align 2 dereferenceable(2) %10) #6
  br label %46

46:                                               ; preds = %45, %40
  br label %47

47:                                               ; preds = %46, %36
  %48 = load i1, ptr %7, align 1
  br i1 %48, label %49, label %50

49:                                               ; preds = %47
  call void @_ZN10OpenSubdiv6v3_6_03Bfr9VertexTagD2Ev(ptr noundef nonnull align 2 dereferenceable(2) %6) #6
  br label %50

50:                                               ; preds = %49, %47
  br label %51

51:                                               ; preds = %50
  %52 = load ptr, ptr %8, align 8
  %53 = load i32, ptr %9, align 4
  %54 = insertvalue { ptr, i32 } poison, ptr %52, 0
  %55 = insertvalue { ptr, i32 } %54, i32 %53, 1
  resume { ptr, i32 } %55
}