; Function Attrs: mustprogress nofree norecurse nosync nounwind willreturn memory(argmem: read) uwtable
define noundef zeroext i1 @_ZN10OpenSubdiv6v3_6_03Bfr9fvar_plus21hasDependentSharpnessERKNS1_10FaceVertexERKNS1_16FaceVertexSubsetE(ptr nocapture noundef nonnull readonly align 8 dereferenceable(224) %0, ptr nocapture noundef nonnull readonly align 4 dereferenceable(12) %1) local_unnamed_addr #6 personality ptr @__gxx_personality_v0 {
  %3 = getelementptr inbounds nuw i8, ptr %0, i64 2
  %4 = load i16, ptr %3, align 2
  %5 = sext i16 %4 to i32
  %6 = getelementptr inbounds nuw i8, ptr %1, i64 6
  %7 = load i16, ptr %6, align 2
  %8 = sext i16 %7 to i32
  %9 = sub nsw i32 %5, %8
  %10 = icmp sgt i32 %9, 1
  br i1 %10, label %11, label %.thread17

11:                                               ; preds = %2
  %12 = getelementptr inbounds nuw i8, ptr %0, i64 152
  %13 = load i16, ptr %12, align 8, !noalias !28
  %14 = and i16 %13, 36
  %.not = icmp eq i16 %14, 0
  br i1 %.not, label %.thread17, label %.thread16

.thread16:                                        ; preds = %11
  %15 = load i16, ptr %1, align 4, !noalias !31
  %16 = and i16 %15, 36
  %.not18 = icmp eq i16 %16, 0
  br label %.thread17

.thread17:                                        ; preds = %11, %.thread16, %2
  %17 = phi i1 [ false, %2 ], [ %.not18, %.thread16 ], [ false, %11 ]
  ret i1 %17
}